target datalayout = "e-m:e-p270:32:32-p271:32:32-p272:64:64-i64:64-i128:128-f80:128-n8:16:32:64-S128"
target triple = "x86_64-unknown-linux-gnu"

@.str.77 = private unnamed_addr constant [7 x i8] c"models\00", align 1

; Function Attrs: mustprogress nounwind uwtable
define linkonce_odr noundef nonnull align 8 dereferenceable(8) ptr @_ZSt3minImERKT_S2_S2_(ptr noundef nonnull align 8 dereferenceable(8) %__a, ptr noundef nonnull align 8 dereferenceable(8) %__b) #0 comdat {
entry:
  %retval = alloca ptr, align 8
  %__a.addr = alloca ptr, align 8
  %__b.addr = alloca ptr, align 8
  store ptr %__a, ptr %__a.addr, align 8
  store ptr %__b, ptr %__b.addr, align 8
  %0 = load ptr, ptr %__b.addr, align 8
  %1 = load i64, ptr %0, align 8
  %2 = load ptr, ptr %__a.addr, align 8
  %3 = load i64, ptr %2, align 8
  %cmp = icmp ult i64 %1, %3
  br i1 %cmp, label %if.then, label %if.end

if.then:                                          ; preds = %entry
  %4 = load ptr, ptr %__b.addr, align 8
  store ptr %4, ptr %retval, align 8
  br label %return

if.end:                                           ; preds = %entry
  %5 = load ptr, ptr %__a.addr, align 8
  store ptr %5, ptr %retval, align 8
  br label %return

return:                                           ; preds = %if.end, %if.then
  %6 = load ptr, ptr %retval, align 8
  ret ptr %6
}

; Function Attrs: mustprogress nounwind uwtable
define linkonce_odr hidden noundef i32 @_ZN6Assimp15ASSIMP_strincmpEPKcS1_j(ptr noundef %s1, ptr noundef %s2, i32 noundef %n) #0 comdat {
entry:
  %retval = alloca i32, align 4
  %s1.addr = alloca ptr, align 8
  %s2.addr = alloca ptr, align 8
  %n.addr = alloca i32, align 4
  store ptr %s1, ptr %s1.addr, align 8
  store ptr %s2, ptr %s2.addr, align 8
  store i32 %n, ptr %n.addr, align 4
  %0 = load i32, ptr %n.addr, align 4
  %tobool = icmp ne i32 %0, 0
  br i1 %tobool, label %if.end, label %if.then

if.then:                                          ; preds = %entry
  store i32 0, ptr %retval, align 4
  br label %return

if.end:                                           ; preds = %entry
  %1 = load ptr, ptr %s1.addr, align 8
  %2 = load ptr, ptr %s2.addr, align 8
  %3 = load i32, ptr %n.addr, align 4
  %conv = zext i32 %3 to i64
  %call = call i32 @strncasecmp(ptr noundef %1, ptr noundef %2, i64 noundef %conv) #16
  store i32 %call, ptr %retval, align 4
  br label %return

return:                                           ; preds = %if.end, %if.then
  %4 = load i32, ptr %retval, align 4
  ret i32 %4
}

; Function Attrs: mustprogress uwtable
define hidden void @_ZNK6Assimp11MD3Importer11ConvertPathEPKcS2_RNSt7__cxx1112basic_stringIcSt11char_traitsIcESaIcEEE(ptr noundef nonnull align 8 dereferenceable(296) %this, ptr noundef %texture_name, ptr noundef %header_name, ptr noundef nonnull align 8 dereferenceable(32) %out) #2 align 2 {
entry:
  %this.addr = alloca ptr, align 8
  %texture_name.addr = alloca ptr, align 8
  %header_name.addr = alloca ptr, align 8
  %out.addr = alloca ptr, align 8
  %end1 = alloca ptr, align 8
  %end2 = alloca ptr, align 8
  %len2 = alloca i64, align 8
  %len1 = alloca i64, align 8
  %ref.tmp = alloca i64, align 8
  store ptr %this, ptr %this.addr, align 8
  store ptr %texture_name, ptr %texture_name.addr, align 8
  store ptr %header_name, ptr %header_name.addr, align 8
  store ptr %out, ptr %out.addr, align 8
  %0 = load ptr, ptr %header_name.addr, align 8
  %call = call noundef ptr @strrchr(ptr noundef %0, i32 noundef 92) #16
  store ptr %call, ptr %end1, align 8
  %1 = load ptr, ptr %end1, align 8
  %tobool = icmp ne ptr %1, null
  br i1 %tobool, label %if.end, label %if.then

if.then:                                          ; preds = %entry
  %2 = load ptr, ptr %header_name.addr, align 8
  %call2 = call noundef ptr @strrchr(ptr noundef %2, i32 noundef 47) #16
  store ptr %call2, ptr %end1, align 8
  br label %if.end

if.end:                                           ; preds = %if.then, %entry
  %3 = load ptr, ptr %texture_name.addr, align 8
  %call3 = call noundef ptr @strrchr(ptr noundef %3, i32 noundef 92) #16
  store ptr %call3, ptr %end2, align 8
  %4 = load ptr, ptr %end2, align 8
  %tobool4 = icmp ne ptr %4, null
  br i1 %tobool4, label %if.end7, label %if.then5

if.then5:                                         ; preds = %if.end
  %5 = load ptr, ptr %texture_name.addr, align 8
  %call6 = call noundef ptr @strrchr(ptr noundef %5, i32 noundef 47) #16
  store ptr %call6, ptr %end2, align 8
  br label %if.end7

if.end7:                                          ; preds = %if.then5, %if.end
  %6 = load ptr, ptr %end2, align 8
  %tobool8 = icmp ne ptr %6, null
  br i1 %tobool8, label %if.then9, label %if.end33

if.then9:                                         ; preds = %if.end7
  %7 = load ptr, ptr %end1, align 8
  %8 = load ptr, ptr %header_name.addr, align 8
  %sub.ptr.lhs.cast = ptrtoint ptr %7 to i64
  %sub.ptr.rhs.cast = ptrtoint ptr %8 to i64
  %sub.ptr.sub = sub i64 %sub.ptr.lhs.cast, %sub.ptr.rhs.cast
  store i64 %sub.ptr.sub, ptr %len1, align 8
  %9 = load ptr, ptr %texture_name.addr, align 8
  %call10 = call noundef i32 @_ZN6Assimp15ASSIMP_strincmpEPKcS1_j(ptr noundef %9, ptr noundef @.str.77, i32 noundef 6)
  %tobool11 = icmp ne i32 %call10, 0
  br i1 %tobool11, label %if.else, label %land.lhs.true

land.lhs.true:                                    ; preds = %if.then9
  %10 = load ptr, ptr %texture_name.addr, align 8
  %arrayidx = getelementptr inbounds i8, ptr %10, i64 6
  %11 = load i8, ptr %arrayidx, align 1
  %conv = sext i8 %11 to i32
  %cmp = icmp eq i32 %conv, 47
  br i1 %cmp, label %if.then15, label %lor.lhs.false

lor.lhs.false:                                    ; preds = %land.lhs.true
  %12 = load ptr, ptr %texture_name.addr, align 8
  %arrayidx12 = getelementptr inbounds i8, ptr %12, i64 6
  %13 = load i8, ptr %arrayidx12, align 1
  %conv13 = sext i8 %13 to i32
  %cmp14 = icmp eq i32 %conv13, 92
  br i1 %cmp14, label %if.then15, label %if.else

if.then15:                                        ; preds = %lor.lhs.false, %land.lhs.true
  store i64 6, ptr %len2, align 8
  %14 = load ptr, ptr %header_name.addr, align 8
  %arrayidx16 = getelementptr inbounds i8, ptr %14, i64 0
  %15 = load i8, ptr %arrayidx16, align 1
  %tobool17 = icmp ne i8 %15, 0
  br i1 %tobool17, label %if.end20, label %if.then18

if.then18:                                        ; preds = %if.then15
  %16 = load ptr, ptr %end2, align 8
  %add.ptr = getelementptr inbounds i8, ptr %16, i64 1
  %17 = load ptr, ptr %out.addr, align 8
  %call19 = call noundef nonnull align 8 dereferenceable(32) ptr @_ZNSt7__cxx1112basic_stringIcSt11char_traitsIcESaIcEEaSEPKc(ptr noundef nonnull align 8 dereferenceable(32) %17, ptr noundef %add.ptr)
  br label %return

if.end20:                                         ; preds = %if.then15
  br label %if.end25

if.else:                                          ; preds = %lor.lhs.false, %if.then9
  %18 = load ptr, ptr %end2, align 8
  %19 = load ptr, ptr %texture_name.addr, align 8
  %sub.ptr.lhs.cast21 = ptrtoint ptr %18 to i64
  %sub.ptr.rhs.cast22 = ptrtoint ptr %19 to i64
  %sub.ptr.sub23 = sub i64 %sub.ptr.lhs.cast21, %sub.ptr.rhs.cast22
  store i64 %sub.ptr.sub23, ptr %ref.tmp, align 8
  %call24 = call noundef nonnull align 8 dereferenceable(8) ptr @_ZSt3minImERKT_S2_S2_(ptr noundef nonnull align 8 dereferenceable(8) %len1, ptr noundef nonnull align 8 dereferenceable(8) %ref.tmp)
  %20 = load i64, ptr %call24, align 8
  store i64 %20, ptr %len2, align 8
  br label %if.end25

if.end25:                                         ; preds = %if.else, %if.end20
  %21 = load ptr, ptr %texture_name.addr, align 8
  %22 = load ptr, ptr %header_name.addr, align 8
  %23 = load i64, ptr %len2, align 8
  %conv26 = trunc i64 %23 to i32
  %call27 = call noundef i32 @_ZN6Assimp15ASSIMP_strincmpEPKcS1_j(ptr noundef %21, ptr noundef %22, i32 noundef %conv26)
  %tobool28 = icmp ne i32 %call27, 0
  br i1 %tobool28, label %if.end32, label %if.then29

if.then29:                                        ; preds = %if.end25
  %24 = load ptr, ptr %end2, align 8
  %add.ptr30 = getelementptr inbounds i8, ptr %24, i64 1
  %25 = load ptr, ptr %out.addr, align 8
  %call31 = call noundef nonnull align 8 dereferenceable(32) ptr @_ZNSt7__cxx1112basic_stringIcSt11char_traitsIcESaIcEEaSEPKc(ptr noundef nonnull align 8 dereferenceable(32) %25, ptr noundef %add.ptr30)
  br label %return

if.end32:                                         ; preds = %if.end25
  br label %if.end33

if.end33:                                         ; preds = %if.end32, %if.end7
  %26 = load ptr, ptr %texture_name.addr, align 8
  %27 = load ptr, ptr %out.addr, align 8
  %call34 = call noundef nonnull align 8 dereferenceable(32) ptr @_ZNSt7__cxx1112basic_stringIcSt11char_traitsIcESaIcEEaSEPKc(ptr noundef nonnull align 8 dereferenceable(32) %27, ptr noundef %26)
  br label %return

return:                                           ; preds = %if.end33, %if.then29, %if.then18
  ret void
}