; Function Attrs: mustprogress uwtable
define hidden void @_ZNK6Assimp11MD3Importer11ConvertPathEPKcS2_RNSt7__cxx1112basic_stringIcSt11char_traitsIcESaIcEEE(ptr nocapture nonnull readnone align 8 %this, ptr noundef %texture_name, ptr noundef %header_name, ptr noundef nonnull align 8 dereferenceable(32) %out) local_unnamed_addr #0 align 2 {
entry:
  %call = tail call noundef ptr @strrchr(ptr noundef nonnull dereferenceable(1) %header_name, i32 noundef 92) #19
  %tobool.not = icmp eq ptr %call, null
  br i1 %tobool.not, label %if.then, label %if.end

if.then:                                          ; preds = %entry
  %call2 = tail call noundef ptr @strrchr(ptr noundef nonnull dereferenceable(1) %header_name, i32 noundef 47) #19
  br label %if.end

if.end:                                           ; preds = %if.then, %entry
  %end1.0 = phi ptr [ %call, %entry ], [ %call2, %if.then ]
  %call3 = tail call noundef ptr @strrchr(ptr noundef nonnull dereferenceable(1) %texture_name, i32 noundef 92) #19
  %tobool4.not = icmp eq ptr %call3, null
  br i1 %tobool4.not, label %if.end7, label %if.then9

if.end7:                                          ; preds = %if.end
  %call6 = tail call noundef ptr @strrchr(ptr noundef nonnull dereferenceable(1) %texture_name, i32 noundef 47) #19
  %tobool8.not = icmp eq ptr %call6, null
  br i1 %tobool8.not, label %if.end33, label %if.then9

if.then9:                                         ; preds = %if.end, %if.end7
  %end2.024 = phi ptr [ %call6, %if.end7 ], [ %call3, %if.end ]
  %sub.ptr.lhs.cast = ptrtoint ptr %end1.0 to i64
  %sub.ptr.rhs.cast = ptrtoint ptr %header_name to i64
  %sub.ptr.sub = sub i64 %sub.ptr.lhs.cast, %sub.ptr.rhs.cast
  %call.i = tail call i32 @strncasecmp(ptr noundef %texture_name, ptr noundef nonnull @.str.77, i64 noundef 6) #19
  %tobool11.not = icmp eq i32 %call.i, 0
  br i1 %tobool11.not, label %land.lhs.true, label %if.end25

land.lhs.true:                                    ; preds = %if.then9
  %arrayidx = getelementptr inbounds i8, ptr %texture_name, i64 6
  %0 = load i8, ptr %arrayidx, align 1
  switch i8 %0, label %if.end25 [
    i8 47, label %if.then15
    i8 92, label %if.then15
  ]

if.then15:                                        ; preds = %land.lhs.true, %land.lhs.true
  %1 = load i8, ptr %header_name, align 1
  %tobool17.not = icmp eq i8 %1, 0
  br i1 %tobool17.not, label %if.then18, label %_ZN6Assimp15ASSIMP_strincmpEPKcS1_j.exit

if.then18:                                        ; preds = %if.then15
  %add.ptr = getelementptr inbounds i8, ptr %end2.024, i64 1
  %call19 = tail call noundef nonnull align 8 dereferenceable(32) ptr @_ZNSt7__cxx1112basic_stringIcSt11char_traitsIcESaIcEEaSEPKc(ptr noundef nonnull align 8 dereferenceable(32) %out, ptr noundef nonnull %add.ptr)
  br label %return

if.end25:                                         ; preds = %if.then9, %land.lhs.true
  %sub.ptr.lhs.cast21 = ptrtoint ptr %end2.024 to i64
  %sub.ptr.rhs.cast22 = ptrtoint ptr %texture_name to i64
  %sub.ptr.sub23 = sub i64 %sub.ptr.lhs.cast21, %sub.ptr.rhs.cast22
  %.sroa.speculated = tail call i64 @llvm.umin.i64(i64 %sub.ptr.sub23, i64 %sub.ptr.sub)
  %2 = and i64 %.sroa.speculated, 4294967295
  %tobool.not.i = icmp eq i64 %2, 0
  br i1 %tobool.not.i, label %if.then29, label %_ZN6Assimp15ASSIMP_strincmpEPKcS1_j.exit

_ZN6Assimp15ASSIMP_strincmpEPKcS1_j.exit:         ; preds = %if.then15, %if.end25
  %len2.031 = phi i64 [ %.sroa.speculated, %if.end25 ], [ 6, %if.then15 ]
  %conv.i = and i64 %len2.031, 4294967295
  %call.i19 = tail call i32 @strncasecmp(ptr noundef %texture_name, ptr noundef %header_name, i64 noundef %conv.i) #19
  %tobool28.not = icmp eq i32 %call.i19, 0
  br i1 %tobool28.not, label %if.then29, label %if.end33

if.then29:                                        ; preds = %if.end25, %_ZN6Assimp15ASSIMP_strincmpEPKcS1_j.exit
  %add.ptr30 = getelementptr inbounds i8, ptr %end2.024, i64 1
  %call31 = tail call noundef nonnull align 8 dereferenceable(32) ptr @_ZNSt7__cxx1112basic_stringIcSt11char_traitsIcESaIcEEaSEPKc(ptr noundef nonnull align 8 dereferenceable(32) %out, ptr noundef nonnull %add.ptr30)
  br label %return

if.end33:                                         ; preds = %_ZN6Assimp15ASSIMP_strincmpEPKcS1_j.exit, %if.end7
  %call34 = tail call noundef nonnull align 8 dereferenceable(32) ptr @_ZNSt7__cxx1112basic_stringIcSt11char_traitsIcESaIcEEaSEPKc(ptr noundef nonnull align 8 dereferenceable(32) %out, ptr noundef %texture_name)
  br label %return

return:                                           ; preds = %if.end33, %if.then29, %if.then18
  ret void
}